target datalayout = "e-m:e-p270:32:32-p271:32:32-p272:64:64-i64:64-i128:128-f80:128-n8:16:32:64-S128"
target triple = "x86_64-pc-linux-gnu"

%struct.Nwk_Obj_t_ = type { ptr, ptr, ptr, %union.anon, i32, i32, i32, i32, float, float, float, i32, i32, i32, ptr }
%union.anon = type { ptr }
%struct.Nwk_Man_t_ = type { ptr, ptr, ptr, ptr, ptr, [5 x i32], i32, ptr, ptr, ptr, ptr, ptr, i32, i32, i32, i32, i32 }

; Function Attrs: inlinehint nounwind uwtable
define internal void @Nwk_ObjSetFlow(ptr noundef %0) #2 {
  %2 = alloca ptr, align 8
  store ptr %0, ptr %2, align 8, !tbaa !3
  %3 = load ptr, ptr %2, align 8, !tbaa !3
  %4 = getelementptr inbounds nuw %struct.Nwk_Obj_t_, ptr %3, i32 0, i32 4
  %5 = load i32, ptr %4, align 8
  %6 = and i32 %5, -33
  %7 = or i32 %6, 32
  store i32 %7, ptr %4, align 8
  ret void
}

; Function Attrs: inlinehint nounwind uwtable
define internal i32 @Nwk_ObjSetPred(ptr noundef %0, ptr noundef %1) #2 {
  %3 = alloca ptr, align 8
  %4 = alloca ptr, align 8
  store ptr %0, ptr %3, align 8, !tbaa !3
  store ptr %1, ptr %4, align 8, !tbaa !3
  %5 = load ptr, ptr %4, align 8, !tbaa !3
  %6 = load ptr, ptr %3, align 8, !tbaa !3
  %7 = getelementptr inbounds nuw %struct.Nwk_Obj_t_, ptr %6, i32 0, i32 2
  store ptr %5, ptr %7, align 8, !tbaa !32
  ret i32 1
}

; Function Attrs: inlinehint nounwind uwtable
define internal ptr @Nwk_ObjPred(ptr noundef %0) #2 {
  %2 = alloca ptr, align 8
  store ptr %0, ptr %2, align 8, !tbaa !3
  %3 = load ptr, ptr %2, align 8, !tbaa !3
  %4 = getelementptr inbounds nuw %struct.Nwk_Obj_t_, ptr %3, i32 0, i32 2
  %5 = load ptr, ptr %4, align 8, !tbaa !32
  ret ptr %5
}

; Function Attrs: inlinehint nounwind uwtable
define internal i32 @Nwk_ObjHasFlow(ptr noundef %0) #2 {
  %2 = alloca ptr, align 8
  store ptr %0, ptr %2, align 8, !tbaa !3
  %3 = load ptr, ptr %2, align 8, !tbaa !3
  %4 = getelementptr inbounds nuw %struct.Nwk_Obj_t_, ptr %3, i32 0, i32 4
  %5 = load i32, ptr %4, align 8
  %6 = lshr i32 %5, 5
  %7 = and i32 %6, 1
  ret i32 %7
}

; Function Attrs: inlinehint nounwind uwtable
define internal void @Nwk_ObjSetVisitedBot(ptr noundef %0) #2 {
  %2 = alloca ptr, align 8
  store ptr %0, ptr %2, align 8, !tbaa !3
  %3 = load ptr, ptr %2, align 8, !tbaa !3
  %4 = getelementptr inbounds nuw %struct.Nwk_Obj_t_, ptr %3, i32 0, i32 6
  %5 = load i32, ptr %4, align 8, !tbaa !22
  %6 = load ptr, ptr %2, align 8, !tbaa !3
  %7 = getelementptr inbounds nuw %struct.Nwk_Obj_t_, ptr %6, i32 0, i32 0
  %8 = load ptr, ptr %7, align 8, !tbaa !23
  %9 = getelementptr inbounds nuw %struct.Nwk_Man_t_, ptr %8, i32 0, i32 12
  %10 = load i32, ptr %9, align 8, !tbaa !24
  %11 = sub nsw i32 %10, 2
  %12 = icmp slt i32 %5, %11
  br i1 %12, label %13, label %22

13:                                               ; preds = %1
  %14 = load ptr, ptr %2, align 8, !tbaa !3
  %15 = getelementptr inbounds nuw %struct.Nwk_Obj_t_, ptr %14, i32 0, i32 0
  %16 = load ptr, ptr %15, align 8, !tbaa !23
  %17 = getelementptr inbounds nuw %struct.Nwk_Man_t_, ptr %16, i32 0, i32 12
  %18 = load i32, ptr %17, align 8, !tbaa !24
  %19 = sub nsw i32 %18, 2
  %20 = load ptr, ptr %2, align 8, !tbaa !3
  %21 = getelementptr inbounds nuw %struct.Nwk_Obj_t_, ptr %20, i32 0, i32 6
  store i32 %19, ptr %21, align 8, !tbaa !22
  br label %43

22:                                               ; preds = %1
  %23 = load ptr, ptr %2, align 8, !tbaa !3
  %24 = getelementptr inbounds nuw %struct.Nwk_Obj_t_, ptr %23, i32 0, i32 6
  %25 = load i32, ptr %24, align 8, !tbaa !22
  %26 = load ptr, ptr %2, align 8, !tbaa !3
  %27 = getelementptr inbounds nuw %struct.Nwk_Obj_t_, ptr %26, i32 0, i32 0
  %28 = load ptr, ptr %27, align 8, !tbaa !23
  %29 = getelementptr inbounds nuw %struct.Nwk_Man_t_, ptr %28, i32 0, i32 12
  %30 = load i32, ptr %29, align 8, !tbaa !24
  %31 = sub nsw i32 %30, 1
  %32 = icmp eq i32 %25, %31
  br i1 %32, label %33, label %41

33:                                               ; preds = %22
  %34 = load ptr, ptr %2, align 8, !tbaa !3
  %35 = getelementptr inbounds nuw %struct.Nwk_Obj_t_, ptr %34, i32 0, i32 0
  %36 = load ptr, ptr %35, align 8, !tbaa !23
  %37 = getelementptr inbounds nuw %struct.Nwk_Man_t_, ptr %36, i32 0, i32 12
  %38 = load i32, ptr %37, align 8, !tbaa !24
  %39 = load ptr, ptr %2, align 8, !tbaa !3
  %40 = getelementptr inbounds nuw %struct.Nwk_Obj_t_, ptr %39, i32 0, i32 6
  store i32 %38, ptr %40, align 8, !tbaa !22
  br label %42

41:                                               ; preds = %22
  br label %42

42:                                               ; preds = %41, %33
  br label %43

43:                                               ; preds = %42, %13
  ret void
}

; Function Attrs: inlinehint nounwind uwtable
define internal i32 @Nwk_ObjVisitedBot(ptr noundef %0) #2 {
  %2 = alloca ptr, align 8
  store ptr %0, ptr %2, align 8, !tbaa !3
  %3 = load ptr, ptr %2, align 8, !tbaa !3
  %4 = getelementptr inbounds nuw %struct.Nwk_Obj_t_, ptr %3, i32 0, i32 6
  %5 = load i32, ptr %4, align 8, !tbaa !22
  %6 = load ptr, ptr %2, align 8, !tbaa !3
  %7 = getelementptr inbounds nuw %struct.Nwk_Obj_t_, ptr %6, i32 0, i32 0
  %8 = load ptr, ptr %7, align 8, !tbaa !23
  %9 = getelementptr inbounds nuw %struct.Nwk_Man_t_, ptr %8, i32 0, i32 12
  %10 = load i32, ptr %9, align 8, !tbaa !24
  %11 = sub nsw i32 %10, 2
  %12 = icmp eq i32 %5, %11
  br i1 %12, label %23, label %13

13:                                               ; preds = %1
  %14 = load ptr, ptr %2, align 8, !tbaa !3
  %15 = getelementptr inbounds nuw %struct.Nwk_Obj_t_, ptr %14, i32 0, i32 6
  %16 = load i32, ptr %15, align 8, !tbaa !22
  %17 = load ptr, ptr %2, align 8, !tbaa !3
  %18 = getelementptr inbounds nuw %struct.Nwk_Obj_t_, ptr %17, i32 0, i32 0
  %19 = load ptr, ptr %18, align 8, !tbaa !23
  %20 = getelementptr inbounds nuw %struct.Nwk_Man_t_, ptr %19, i32 0, i32 12
  %21 = load i32, ptr %20, align 8, !tbaa !24
  %22 = icmp eq i32 %16, %21
  br label %23

23:                                               ; preds = %13, %1
  %24 = phi i1 [ true, %1 ], [ %22, %13 ]
  %25 = zext i1 %24 to i32
  ret i32 %25
}

; Function Attrs: nounwind uwtable
define internal i32 @Nwk_ManPushForwardBot_rec(ptr noundef %0, ptr noundef %1) #0 {
  %3 = alloca i32, align 4
  %4 = alloca ptr, align 8
  %5 = alloca ptr, align 8
  %6 = alloca ptr, align 8
  %7 = alloca i32, align 4
  %8 = alloca i32, align 4
  store ptr %0, ptr %4, align 8, !tbaa !3
  store ptr %1, ptr %5, align 8, !tbaa !3
  call void @llvm.lifetime.start.p0(i64 8, ptr %6) #9
  call void @llvm.lifetime.start.p0(i64 4, ptr %7) #9
  %9 = load ptr, ptr %4, align 8, !tbaa !3
  %10 = call i32 @Nwk_ObjVisitedBot(ptr noundef %9)
  %11 = icmp ne i32 %10, 0
  br i1 %11, label %12, label %13

12:                                               ; preds = %2
  store i32 0, ptr %3, align 4
  store i32 1, ptr %8, align 4
  br label %75

13:                                               ; preds = %2
  %14 = load ptr, ptr %4, align 8, !tbaa !3
  call void @Nwk_ObjSetVisitedBot(ptr noundef %14)
  %15 = load ptr, ptr %4, align 8, !tbaa !3
  %16 = call i32 @Nwk_ObjHasFlow(ptr noundef %15)
  %17 = icmp ne i32 %16, 0
  br i1 %17, label %18, label %35

18:                                               ; preds = %13
  %19 = load ptr, ptr %4, align 8, !tbaa !3
  %20 = call ptr @Nwk_ObjPred(ptr noundef %19)
  %21 = icmp ne ptr %20, null
  br i1 %21, label %22, label %34

22:                                               ; preds = %18
  %23 = load ptr, ptr %4, align 8, !tbaa !3
  %24 = call ptr @Nwk_ObjPred(ptr noundef %23)
  %25 = load ptr, ptr %4, align 8, !tbaa !3
  %26 = call ptr @Nwk_ObjPred(ptr noundef %25)
  %27 = call i32 @Nwk_ManPushForwardTop_rec(ptr noundef %24, ptr noundef %26)
  %28 = icmp ne i32 %27, 0
  br i1 %28, label %29, label %33

29:                                               ; preds = %22
  %30 = load ptr, ptr %4, align 8, !tbaa !3
  %31 = load ptr, ptr %5, align 8, !tbaa !3
  %32 = call i32 @Nwk_ObjSetPred(ptr noundef %30, ptr noundef %31)
  store i32 %32, ptr %3, align 4
  store i32 1, ptr %8, align 4
  br label %75

33:                                               ; preds = %22
  br label %34

34:                                               ; preds = %33, %18
  br label %46

35:                                               ; preds = %13
  %36 = load ptr, ptr %4, align 8, !tbaa !3
  %37 = load ptr, ptr %4, align 8, !tbaa !3
  %38 = call i32 @Nwk_ManPushForwardTop_rec(ptr noundef %36, ptr noundef %37)
  %39 = icmp ne i32 %38, 0
  br i1 %39, label %40, label %45

40:                                               ; preds = %35
  %41 = load ptr, ptr %4, align 8, !tbaa !3
  call void @Nwk_ObjSetFlow(ptr noundef %41)
  %42 = load ptr, ptr %4, align 8, !tbaa !3
  %43 = load ptr, ptr %5, align 8, !tbaa !3
  %44 = call i32 @Nwk_ObjSetPred(ptr noundef %42, ptr noundef %43)
  store i32 %44, ptr %3, align 4
  store i32 1, ptr %8, align 4
  br label %75

45:                                               ; preds = %35
  br label %46

46:                                               ; preds = %45, %34
  store i32 0, ptr %7, align 4, !tbaa !8
  br label %47

47:                                               ; preds = %71, %46
  %48 = load i32, ptr %7, align 4, !tbaa !8
  %49 = load ptr, ptr %4, align 8, !tbaa !3
  %50 = getelementptr inbounds nuw %struct.Nwk_Obj_t_, ptr %49, i32 0, i32 11
  %51 = load i32, ptr %50, align 4, !tbaa !10
  %52 = icmp slt i32 %48, %51
  br i1 %52, label %53, label %62

53:                                               ; preds = %47
  %54 = load ptr, ptr %4, align 8, !tbaa !3
  %55 = getelementptr inbounds nuw %struct.Nwk_Obj_t_, ptr %54, i32 0, i32 14
  %56 = load ptr, ptr %55, align 8, !tbaa !16
  %57 = load i32, ptr %7, align 4, !tbaa !8
  %58 = sext i32 %57 to i64
  %59 = getelementptr inbounds ptr, ptr %56, i64 %58
  %60 = load ptr, ptr %59, align 8, !tbaa !3
  store ptr %60, ptr %6, align 8, !tbaa !3
  %61 = icmp ne ptr %60, null
  br label %62

62:                                               ; preds = %53, %47
  %63 = phi i1 [ false, %47 ], [ %61, %53 ]
  br i1 %63, label %64, label %74

64:                                               ; preds = %62
  %65 = load ptr, ptr %6, align 8, !tbaa !3
  %66 = load ptr, ptr %5, align 8, !tbaa !3
  %67 = call i32 @Nwk_ManPushForwardBot_rec(ptr noundef %65, ptr noundef %66)
  %68 = icmp ne i32 %67, 0
  br i1 %68, label %69, label %70

69:                                               ; preds = %64
  store i32 1, ptr %3, align 4
  store i32 1, ptr %8, align 4
  br label %75

70:                                               ; preds = %64
  br label %71

71:                                               ; preds = %70
  %72 = load i32, ptr %7, align 4, !tbaa !8
  %73 = add nsw i32 %72, 1
  store i32 %73, ptr %7, align 4, !tbaa !8
  br label %47, !llvm.loop !58

74:                                               ; preds = %62
  store i32 0, ptr %3, align 4
  store i32 1, ptr %8, align 4
  br label %75

75:                                               ; preds = %74, %69, %40, %29, %12
  call void @llvm.lifetime.end.p0(i64 4, ptr %7) #9
  call void @llvm.lifetime.end.p0(i64 8, ptr %6) #9
  %76 = load i32, ptr %3, align 4
  ret i32 %76
}