; Function Attrs: nofree nosync nounwind memory(readwrite, inaccessiblemem: none) uwtable
define internal fastcc range(i32 0, 2) i32 @Nwk_ManPushForwardBot_rec(ptr noundef %0, ptr noundef %1) unnamed_addr #0 {
  %.val28 = load ptr, ptr %0, align 8, !tbaa !20
  %3 = getelementptr i8, ptr %0, i64 40
  %.val29 = load i32, ptr %3, align 8, !tbaa !21
  %4 = getelementptr i8, ptr %.val28, i64 104
  %.val28.val = load i32, ptr %4, align 8, !tbaa !22
  %5 = add nsw i32 %.val28.val, -2
  %6 = icmp ne i32 %.val29, %5
  %7 = icmp ne i32 %.val29, %.val28.val
  %narrow.i.not = and i1 %7, %6
  br i1 %narrow.i.not, label %8, label %.critedge

8:                                                ; preds = %2
  %9 = icmp slt i32 %.val29, %5
  br i1 %9, label %.sink.split.i, label %10

10:                                               ; preds = %8
  %11 = add nsw i32 %.val28.val, -1
  %12 = icmp eq i32 %.val29, %11
  br i1 %12, label %.sink.split.i, label %Nwk_ObjSetVisitedBot.exit

.sink.split.i:                                    ; preds = %10, %8
  %.sink.i = phi i32 [ %5, %8 ], [ %.val28.val, %10 ]
  store i32 %.sink.i, ptr %3, align 8, !tbaa !21
  br label %Nwk_ObjSetVisitedBot.exit

Nwk_ObjSetVisitedBot.exit:                        ; preds = %10, %.sink.split.i
  %13 = getelementptr i8, ptr %0, i64 32
  %.val = load i32, ptr %13, align 8
  %14 = and i32 %.val, 32
  %.not22 = icmp eq i32 %14, 0
  br i1 %.not22, label %20, label %15

15:                                               ; preds = %Nwk_ObjSetVisitedBot.exit
  %16 = getelementptr i8, ptr %0, i64 16
  %.val30 = load ptr, ptr %16, align 8, !tbaa !31
  %.not24 = icmp eq ptr %.val30, null
  br i1 %.not24, label %26, label %17

17:                                               ; preds = %15
  %18 = tail call fastcc i32 @Nwk_ManPushForwardTop_rec(ptr noundef nonnull %.val30, ptr noundef nonnull %.val30)
  %.not25 = icmp eq i32 %18, 0
  br i1 %.not25, label %26, label %19

19:                                               ; preds = %17
  store ptr %1, ptr %16, align 8, !tbaa !31
  br label %.critedge

20:                                               ; preds = %Nwk_ObjSetVisitedBot.exit
  %21 = tail call fastcc i32 @Nwk_ManPushForwardTop_rec(ptr noundef nonnull %0, ptr noundef nonnull %0)
  %.not23 = icmp eq i32 %21, 0
  br i1 %.not23, label %26, label %22

22:                                               ; preds = %20
  %23 = load i32, ptr %13, align 8
  %24 = or i32 %23, 32
  store i32 %24, ptr %13, align 8
  %25 = getelementptr inbounds nuw i8, ptr %0, i64 16
  store ptr %1, ptr %25, align 8, !tbaa !31
  br label %.critedge

26:                                               ; preds = %20, %15, %17
  %27 = getelementptr inbounds nuw i8, ptr %0, i64 72
  %28 = getelementptr inbounds nuw i8, ptr %0, i64 60
  %29 = load i32, ptr %28, align 4, !tbaa !3
  %30 = icmp sgt i32 %29, 0
  br i1 %30, label %.lr.ph, label %.critedge

31:                                               ; preds = %38
  %indvars.iv.next = add nuw nsw i64 %indvars.iv, 1
  %32 = load i32, ptr %28, align 4, !tbaa !3
  %33 = sext i32 %32 to i64
  %34 = icmp slt i64 %indvars.iv.next, %33
  br i1 %34, label %.lr.ph, label %.critedge, !llvm.loop !59

.lr.ph:                                           ; preds = %26, %31
  %indvars.iv = phi i64 [ %indvars.iv.next, %31 ], [ 0, %26 ]
  %35 = load ptr, ptr %27, align 8, !tbaa !13
  %36 = getelementptr inbounds nuw ptr, ptr %35, i64 %indvars.iv
  %37 = load ptr, ptr %36, align 8, !tbaa !14
  %.not26 = icmp eq ptr %37, null
  br i1 %.not26, label %.critedge, label %38

38:                                               ; preds = %.lr.ph
  %39 = tail call fastcc i32 @Nwk_ManPushForwardBot_rec(ptr noundef nonnull %37, ptr noundef %1)
  %.not27 = icmp eq i32 %39, 0
  br i1 %.not27, label %31, label %.critedge

.critedge:                                        ; preds = %38, %31, %.lr.ph, %26, %2, %22, %19
  %.020 = phi i32 [ 1, %19 ], [ 1, %22 ], [ 0, %2 ], [ 0, %26 ], [ 1, %38 ], [ 0, %31 ], [ 0, %.lr.ph ]
  ret i32 %.020
}